target datalayout = "e-m:e-p270:32:32-p271:32:32-p272:64:64-i64:64-i128:128-f80:128-n8:16:32:64-S128"
target triple = "x86_64-pc-linux-gnu"

%struct.Abc_Obj_t_ = type { ptr, ptr, i32, i32, %struct.Vec_Int_t_, %struct.Vec_Int_t_, %union.anon, %union.anon.0 }
%struct.Vec_Int_t_ = type { i32, i32, ptr }
%union.anon = type { ptr }
%union.anon.0 = type { ptr }
%struct.Abc_Ntk_t_ = type { i32, i32, ptr, ptr, ptr, ptr, ptr, ptr, ptr, ptr, ptr, ptr, ptr, [11 x i32], i32, i32, i32, i32, ptr, i32, ptr, ptr, i32, i32, i32, double, i32, %struct.Vec_Int_t_, ptr, ptr, ptr, ptr, ptr, float, i32, ptr, ptr, ptr, ptr, ptr, ptr, ptr, ptr, ptr, ptr, ptr, ptr, ptr, ptr, ptr, ptr, ptr, ptr, ptr, ptr, ptr }

; Function Attrs: nounwind uwtable
define internal void @Abc_ObjSetFaninC(ptr noundef %0, i32 noundef %1) #0 {
  %3 = alloca ptr, align 8
  %4 = alloca i32, align 4
  store ptr %0, ptr %3, align 8
  store i32 %1, ptr %4, align 4
  %5 = load i32, ptr %4, align 4
  %6 = icmp ne i32 %5, 0
  br i1 %6, label %7, label %13

7:                                                ; preds = %2
  %8 = load ptr, ptr %3, align 8
  %9 = getelementptr inbounds %struct.Abc_Obj_t_, ptr %8, i32 0, i32 3
  %10 = load i32, ptr %9, align 4
  %11 = and i32 %10, -2049
  %12 = or i32 %11, 2048
  store i32 %12, ptr %9, align 4
  br label %19

13:                                               ; preds = %2
  %14 = load ptr, ptr %3, align 8
  %15 = getelementptr inbounds %struct.Abc_Obj_t_, ptr %14, i32 0, i32 3
  %16 = load i32, ptr %15, align 4
  %17 = and i32 %16, -1025
  %18 = or i32 %17, 1024
  store i32 %18, ptr %15, align 4
  br label %19

19:                                               ; preds = %13, %7
  ret void
}

; Function Attrs: nounwind uwtable
define internal i32 @Abc_ObjFaninNum(ptr noundef %0) #0 {
  %2 = alloca ptr, align 8
  store ptr %0, ptr %2, align 8
  %3 = load ptr, ptr %2, align 8
  %4 = getelementptr inbounds %struct.Abc_Obj_t_, ptr %3, i32 0, i32 4
  %5 = getelementptr inbounds %struct.Vec_Int_t_, ptr %4, i32 0, i32 1
  %6 = load i32, ptr %5, align 4
  ret i32 %6
}

; Function Attrs: nounwind uwtable
define internal i32 @Abc_ObjIsComplement(ptr noundef %0) #0 {
  %2 = alloca ptr, align 8
  store ptr %0, ptr %2, align 8
  %3 = load ptr, ptr %2, align 8
  %4 = ptrtoint ptr %3 to i64
  %5 = and i64 %4, 1
  %6 = trunc i64 %5 to i32
  ret i32 %6
}

; Function Attrs: nounwind uwtable
define internal ptr @Abc_ObjRegular(ptr noundef %0) #0 {
  %2 = alloca ptr, align 8
  store ptr %0, ptr %2, align 8
  %3 = load ptr, ptr %2, align 8
  %4 = ptrtoint ptr %3 to i64
  %5 = and i64 %4, -2
  %6 = inttoptr i64 %5 to ptr
  ret ptr %6
}

; Function Attrs: nounwind uwtable
define void @Abc_ObjAddFanin(ptr noundef %0, ptr noundef %1) #0 {
  %3 = alloca ptr, align 8
  %4 = alloca ptr, align 8
  %5 = alloca ptr, align 8
  store ptr %0, ptr %3, align 8
  store ptr %1, ptr %4, align 8
  %6 = load ptr, ptr %4, align 8
  %7 = call ptr @Abc_ObjRegular(ptr noundef %6)
  store ptr %7, ptr %5, align 8
  %8 = load ptr, ptr %3, align 8
  %9 = getelementptr inbounds %struct.Abc_Obj_t_, ptr %8, i32 0, i32 0
  %10 = load ptr, ptr %9, align 8
  %11 = getelementptr inbounds %struct.Abc_Ntk_t_, ptr %10, i32 0, i32 29
  %12 = load ptr, ptr %11, align 8
  %13 = load ptr, ptr %3, align 8
  %14 = getelementptr inbounds %struct.Abc_Obj_t_, ptr %13, i32 0, i32 4
  %15 = load ptr, ptr %5, align 8
  %16 = getelementptr inbounds %struct.Abc_Obj_t_, ptr %15, i32 0, i32 2
  %17 = load i32, ptr %16, align 8
  call void @Vec_IntPushMem(ptr noundef %12, ptr noundef %14, i32 noundef %17)
  %18 = load ptr, ptr %3, align 8
  %19 = getelementptr inbounds %struct.Abc_Obj_t_, ptr %18, i32 0, i32 0
  %20 = load ptr, ptr %19, align 8
  %21 = getelementptr inbounds %struct.Abc_Ntk_t_, ptr %20, i32 0, i32 29
  %22 = load ptr, ptr %21, align 8
  %23 = load ptr, ptr %5, align 8
  %24 = getelementptr inbounds %struct.Abc_Obj_t_, ptr %23, i32 0, i32 5
  %25 = load ptr, ptr %3, align 8
  %26 = getelementptr inbounds %struct.Abc_Obj_t_, ptr %25, i32 0, i32 2
  %27 = load i32, ptr %26, align 8
  call void @Vec_IntPushMem(ptr noundef %22, ptr noundef %24, i32 noundef %27)
  %28 = load ptr, ptr %4, align 8
  %29 = call i32 @Abc_ObjIsComplement(ptr noundef %28)
  %30 = icmp ne i32 %29, 0
  br i1 %30, label %31, label %36

31:                                               ; preds = %2
  %32 = load ptr, ptr %3, align 8
  %33 = load ptr, ptr %3, align 8
  %34 = call i32 @Abc_ObjFaninNum(ptr noundef %33)
  %35 = sub nsw i32 %34, 1
  call void @Abc_ObjSetFaninC(ptr noundef %32, i32 noundef %35)
  br label %36

36:                                               ; preds = %31, %2
  ret void
}