; Function Attrs: nounwind uwtable
define void @Abc_ObjAddFanin(ptr noundef captures(none) %0, ptr noundef %1) local_unnamed_addr #0 {
  %3 = ptrtoint ptr %1 to i64
  %4 = and i64 %3, -2
  %5 = inttoptr i64 %4 to ptr
  %6 = load ptr, ptr %0, align 8
  %7 = getelementptr inbounds nuw i8, ptr %6, i64 248
  %8 = load ptr, ptr %7, align 8
  %9 = getelementptr inbounds nuw i8, ptr %0, i64 24
  %10 = getelementptr inbounds nuw i8, ptr %5, i64 16
  %11 = load i32, ptr %10, align 8
  tail call fastcc void @Vec_IntPushMem(ptr noundef %8, ptr noundef nonnull %9, i32 noundef %11)
  %12 = load ptr, ptr %0, align 8
  %13 = getelementptr inbounds nuw i8, ptr %12, i64 248
  %14 = load ptr, ptr %13, align 8
  %15 = getelementptr inbounds nuw i8, ptr %5, i64 40
  %16 = getelementptr inbounds nuw i8, ptr %0, i64 16
  %17 = load i32, ptr %16, align 8
  tail call fastcc void @Vec_IntPushMem(ptr noundef %14, ptr noundef nonnull %15, i32 noundef %17)
  %18 = and i64 %3, 1
  %.not = icmp eq i64 %18, 0
  br i1 %.not, label %24, label %19

19:                                               ; preds = %2
  %20 = getelementptr i8, ptr %0, i64 28
  %.val = load i32, ptr %20, align 4
  %.not.i = icmp eq i32 %.val, 1
  %21 = getelementptr inbounds nuw i8, ptr %0, i64 20
  %22 = load i32, ptr %21, align 4
  %..i = select i1 %.not.i, i32 1024, i32 2048
  %23 = or i32 %..i, %22
  store i32 %23, ptr %21, align 4
  br label %24

24:                                               ; preds = %19, %2
  ret void
}